	.file	"util.c"
	.text
	.globl	isIn
	.type	isIn, @function
isIn:
.LFB6:
	.cfi_startproc
	endbr64
	pushq	%rbp
	.cfi_def_cfa_offset 16
	.cfi_offset 6, -16
	movq	%rsp, %rbp
	.cfi_def_cfa_register 6
	movl	%edi, -20(%rbp)
	movq	%rsi, -32(%rbp)
	movl	$0, -8(%rbp)
	movl	$0, -4(%rbp)
	jmp	.L2
.L5:
	movl	-8(%rbp), %eax
	cltq
	leaq	0(,%rax,4), %rdx
	movq	-32(%rbp), %rax
	addq	%rdx, %rax
	movl	(%rax), %eax
	cmpl	%eax, -20(%rbp)
	je	.L3
	movl	-4(%rbp), %eax
	jmp	.L4
.L3:
	movl	$1, %eax
.L4:
	movl	%eax, -4(%rbp)
	addl	$1, -8(%rbp)
.L2:
	cmpl	$3, -8(%rbp)
	jle	.L5
	movl	-4(%rbp), %eax
	popq	%rbp
	.cfi_def_cfa 7, 8
	ret
	.cfi_endproc
.LFE6:
	.size	isIn, .-isIn
	.globl	stringConnect
	.type	stringConnect, @function
stringConnect:
.LFB7:
	.cfi_startproc
	endbr64
	pushq	%rbp
	.cfi_def_cfa_offset 16
	.cfi_offset 6, -16
	movq	%rsp, %rbp
	.cfi_def_cfa_register 6
	pushq	%rbx
	subq	$40, %rsp
	.cfi_offset 3, -24
	movq	%rdi, -40(%rbp)
	movq	%rsi, -48(%rbp)
	movq	-40(%rbp), %rax
	movq	%rax, %rdi
	call	strlen@PLT
	movq	%rax, %rbx
	movq	-48(%rbp), %rax
	movq	%rax, %rdi
	call	strlen@PLT
	addq	%rbx, %rax
	addq	$1, %rax
	movq	%rax, %rdi
	call	malloc@PLT
	movq	%rax, -24(%rbp)
	movq	-40(%rbp), %rdx
	movq	-24(%rbp), %rax
	movq	%rdx, %rsi
	movq	%rax, %rdi
	call	strcpy@PLT
	movq	-48(%rbp), %rdx
	movq	-24(%rbp), %rax
	movq	%rdx, %rsi
	movq	%rax, %rdi
	call	strcat@PLT
	movq	-24(%rbp), %rax
	movq	-8(%rbp), %rbx
	leave
	.cfi_def_cfa 7, 8
	ret
	.cfi_endproc
.LFE7:
	.size	stringConnect, .-stringConnect
	.globl	countSpaces
	.type	countSpaces, @function
countSpaces:
.LFB8:
	.cfi_startproc
	endbr64
	pushq	%rbp
	.cfi_def_cfa_offset 16
	.cfi_offset 6, -16
	movq	%rsp, %rbp
	.cfi_def_cfa_register 6
	subq	$32, %rsp
	movq	%rdi, -24(%rbp)
	movl	$0, -4(%rbp)
	movl	$0, -4(%rbp)
	jmp	.L10
.L12:
	addl	$1, -4(%rbp)
.L10:
	cmpl	$79, -4(%rbp)
	jg	.L11
	call	__ctype_b_loc@PLT
	movq	(%rax), %rdx
	movl	-4(%rbp), %eax
	movslq	%eax, %rcx
	movq	-24(%rbp), %rax
	addq	%rcx, %rax
	movzbl	(%rax), %eax
	movsbq	%al, %rax
	addq	%rax, %rax
	addq	%rdx, %rax
	movzwl	(%rax), %eax
	movzwl	%ax, %eax
	andl	$8192, %eax
	testl	%eax, %eax
	je	.L11
	movl	-4(%rbp), %eax
	movslq	%eax, %rdx
	movq	-24(%rbp), %rax
	addq	%rdx, %rax
	movzbl	(%rax), %eax
	testb	%al, %al
	jne	.L12
.L11:
	movl	-4(%rbp), %eax
	leave
	.cfi_def_cfa 7, 8
	ret
	.cfi_endproc
.LFE8:
	.size	countSpaces, .-countSpaces
	.globl	isLastWord
	.type	isLastWord, @function
isLastWord:
.LFB9:
	.cfi_startproc
	endbr64
	pushq	%rbp
	.cfi_def_cfa_offset 16
	.cfi_offset 6, -16
	movq	%rsp, %rbp
	.cfi_def_cfa_register 6
	subq	$32, %rsp
	movq	%rdi, -24(%rbp)
	movl	$0, -4(%rbp)
	jmp	.L15
.L17:
	addl	$1, -4(%rbp)
.L15:
	movl	-4(%rbp), %eax
	movslq	%eax, %rdx
	movq	-24(%rbp), %rax
	addq	%rdx, %rax
	movzbl	(%rax), %eax
	testb	%al, %al
	je	.L18
	call	__ctype_b_loc@PLT
	movq	(%rax), %rdx
	movl	-4(%rbp), %eax
	movslq	%eax, %rcx
	movq	-24(%rbp), %rax
	addq	%rcx, %rax
	movzbl	(%rax), %eax
	movsbq	%al, %rax
	addq	%rax, %rax
	addq	%rdx, %rax
	movzwl	(%rax), %eax
	movzwl	%ax, %eax
	andl	$8192, %eax
	testl	%eax, %eax
	je	.L17
	jmp	.L18
.L21:
	call	__ctype_b_loc@PLT
	movq	(%rax), %rdx
	movl	-4(%rbp), %eax
	movslq	%eax, %rcx
	movq	-24(%rbp), %rax
	addq	%rcx, %rax
	movzbl	(%rax), %eax
	movsbq	%al, %rax
	addq	%rax, %rax
	addq	%rdx, %rax
	movzwl	(%rax), %eax
	movzwl	%ax, %eax
	andl	$8192, %eax
	testl	%eax, %eax
	jne	.L19
	movl	$0, %eax
	jmp	.L20
.L19:
	addl	$1, -4(%rbp)
.L18:
	movl	-4(%rbp), %eax
	movslq	%eax, %rdx
	movq	-24(%rbp), %rax
	addq	%rdx, %rax
	movzbl	(%rax), %eax
	testb	%al, %al
	jne	.L21
	movl	$1, %eax
.L20:
	leave
	.cfi_def_cfa 7, 8
	ret
	.cfi_endproc
.LFE9:
	.size	isLastWord, .-isLastWord
	.globl	startsWithWord
	.type	startsWithWord, @function
startsWithWord:
.LFB10:
	.cfi_startproc
	endbr64
	pushq	%rbp
	.cfi_def_cfa_offset 16
	.cfi_offset 6, -16
	movq	%rsp, %rbp
	.cfi_def_cfa_register 6
	subq	$32, %rsp
	movq	%rdi, -24(%rbp)
	movq	%rsi, -32(%rbp)
	movq	-32(%rbp), %rax
	movq	%rax, %rdi
	call	strlen@PLT
	movl	%eax, -4(%rbp)
	movl	-4(%rbp), %eax
	movslq	%eax, %rdx
	movq	-32(%rbp), %rcx
	movq	-24(%rbp), %rax
	movq	%rcx, %rsi
	movq	%rax, %rdi
	call	strncmp@PLT
	testl	%eax, %eax
	jne	.L23
	call	__ctype_b_loc@PLT
	movq	(%rax), %rdx
	movl	-4(%rbp), %eax
	movslq	%eax, %rcx
	movq	-24(%rbp), %rax
	addq	%rcx, %rax
	movzbl	(%rax), %eax
	movsbq	%al, %rax
	addq	%rax, %rax
	addq	%rdx, %rax
	movzwl	(%rax), %eax
	movzwl	%ax, %eax
	andl	$8192, %eax
	testl	%eax, %eax
	jne	.L24
	movl	-4(%rbp), %eax
	movslq	%eax, %rdx
	movq	-24(%rbp), %rax
	addq	%rdx, %rax
	movzbl	(%rax), %eax
	testb	%al, %al
	jne	.L23
.L24:
	movl	$1, %eax
	jmp	.L26
.L23:
	movl	$0, %eax
.L26:
	leave
	.cfi_def_cfa 7, 8
	ret
	.cfi_endproc
.LFE10:
	.size	startsWithWord, .-startsWithWord
	.globl	deleteSpacesAtEnd
	.type	deleteSpacesAtEnd, @function
deleteSpacesAtEnd:
.LFB11:
	.cfi_startproc
	endbr64
	pushq	%rbp
	.cfi_def_cfa_offset 16
	.cfi_offset 6, -16
	movq	%rsp, %rbp
	.cfi_def_cfa_register 6
	subq	$32, %rsp
	movq	%rdi, -24(%rbp)
	movl	$0, -4(%rbp)
	jmp	.L28
.L30:
	addl	$1, -4(%rbp)
.L28:
	movl	-4(%rbp), %eax
	movslq	%eax, %rdx
	movq	-24(%rbp), %rax
	addq	%rdx, %rax
	movzbl	(%rax), %eax
	testb	%al, %al
	je	.L29
	call	__ctype_b_loc@PLT
	movq	(%rax), %rdx
	movl	-4(%rbp), %eax
	movslq	%eax, %rcx
	movq	-24(%rbp), %rax
	addq	%rcx, %rax
	movzbl	(%rax), %eax
	movsbq	%al, %rax
	addq	%rax, %rax
	addq	%rdx, %rax
	movzwl	(%rax), %eax
	movzwl	%ax, %eax
	andl	$8192, %eax
	testl	%eax, %eax
	je	.L30
.L29:
	movl	-4(%rbp), %eax
	movslq	%eax, %rdx
	movq	-24(%rbp), %rax
	addq	%rdx, %rax
	movzbl	(%rax), %eax
	testb	%al, %al
	je	.L32
	movl	-4(%rbp), %eax
	movslq	%eax, %rdx
	movq	-24(%rbp), %rax
	addq	%rdx, %rax
	movb	$0, (%rax)
.L32:
	nop
	leave
	.cfi_def_cfa 7, 8
	ret
	.cfi_endproc
.LFE11:
	.size	deleteSpacesAtEnd, .-deleteSpacesAtEnd
	.globl	duplicateString
	.type	duplicateString, @function
duplicateString:
.LFB12:
	.cfi_startproc
	endbr64
	pushq	%rbp
	.cfi_def_cfa_offset 16
	.cfi_offset 6, -16
	movq	%rsp, %rbp
	.cfi_def_cfa_register 6
	subq	$32, %rsp
	movq	%rdi, -24(%rbp)
	movl	$80, %edi
	call	malloc@PLT
	movq	%rax, -8(%rbp)
	movq	-24(%rbp), %rdx
	movq	-8(%rbp), %rax
	movq	%rdx, %rsi
	movq	%rax, %rdi
	call	strcpy@PLT
	movq	-8(%rbp), %rax
	leave
	.cfi_def_cfa 7, 8
	ret
	.cfi_endproc
.LFE12:
	.size	duplicateString, .-duplicateString
	.globl	hasDott
	.type	hasDott, @function
hasDott:
.LFB13:
	.cfi_startproc
	endbr64
	pushq	%rbp
	.cfi_def_cfa_offset 16
	.cfi_offset 6, -16
	movq	%rsp, %rbp
	.cfi_def_cfa_register 6
	movq	%rdi, -24(%rbp)
	movl	$0, -4(%rbp)
	jmp	.L36
.L39:
	movl	-4(%rbp), %eax
	movslq	%eax, %rdx
	movq	-24(%rbp), %rax
	addq	%rdx, %rax
	movzbl	(%rax), %eax
	cmpb	$46, %al
	jne	.L37
	movl	$1, %eax
	jmp	.L38
.L37:
	addl	$1, -4(%rbp)
.L36:
	movl	-4(%rbp), %eax
	movslq	%eax, %rdx
	movq	-24(%rbp), %rax
	addq	%rdx, %rax
	movzbl	(%rax), %eax
	testb	%al, %al
	jne	.L39
	movl	$0, %eax
.L38:
	popq	%rbp
	.cfi_def_cfa 7, 8
	ret
	.cfi_endproc
.LFE13:
	.size	hasDott, .-hasDott
	.section	.rodata
.LC0:
	.string	"label size to big"
	.text
	.globl	getLabelName
	.type	getLabelName, @function
getLabelName:
.LFB14:
	.cfi_startproc
	endbr64
	pushq	%rbp
	.cfi_def_cfa_offset 16
	.cfi_offset 6, -16
	movq	%rsp, %rbp
	.cfi_def_cfa_register 6
	subq	$32, %rsp
	movq	%rdi, -24(%rbp)
	movq	%rsi, -32(%rbp)
	movl	$0, -4(%rbp)
	jmp	.L41
.L43:
	cmpl	$29, -4(%rbp)
	jle	.L42
	leaq	.LC0(%rip), %rax
	movq	%rax, %rdi
	call	puts@PLT
	movl	$0, %edi
	call	exit@PLT
.L42:
	movl	-4(%rbp), %eax
	movslq	%eax, %rdx
	movq	-24(%rbp), %rax
	addq	%rdx, %rax
	movl	-4(%rbp), %edx
	movslq	%edx, %rcx
	movq	-32(%rbp), %rdx
	addq	%rcx, %rdx
	movzbl	(%rax), %eax
	movb	%al, (%rdx)
	movl	-4(%rbp), %eax
	cltq
	leaq	1(%rax), %rdx
	movq	-32(%rbp), %rax
	addq	%rdx, %rax
	movb	$0, (%rax)
	addl	$1, -4(%rbp)
.L41:
	movl	-4(%rbp), %eax
	movslq	%eax, %rdx
	movq	-24(%rbp), %rax
	addq	%rdx, %rax
	movzbl	(%rax), %eax
	cmpb	$58, %al
	jne	.L43
	nop
	nop
	leave
	.cfi_def_cfa 7, 8
	ret
	.cfi_endproc
.LFE14:
	.size	getLabelName, .-getLabelName
	.globl	getLabelOperandName
	.type	getLabelOperandName, @function
getLabelOperandName:
.LFB15:
	.cfi_startproc
	endbr64
	pushq	%rbp
	.cfi_def_cfa_offset 16
	.cfi_offset 6, -16
	movq	%rsp, %rbp
	.cfi_def_cfa_register 6
	subq	$32, %rsp
	movq	%rdi, -24(%rbp)
	movq	%rsi, -32(%rbp)
	movl	$0, -4(%rbp)
	jmp	.L45
.L47:
	cmpl	$29, -4(%rbp)
	jle	.L46
	leaq	.LC0(%rip), %rax
	movq	%rax, %rdi
	call	puts@PLT
	movl	$0, %edi
	call	exit@PLT
.L46:
	movl	-4(%rbp), %eax
	movslq	%eax, %rdx
	movq	-24(%rbp), %rax
	addq	%rdx, %rax
	movl	-4(%rbp), %edx
	movslq	%edx, %rcx
	movq	-32(%rbp), %rdx
	addq	%rcx, %rdx
	movzbl	(%rax), %eax
	movb	%al, (%rdx)
	movl	-4(%rbp), %eax
	cltq
	leaq	1(%rax), %rdx
	movq	-32(%rbp), %rax
	addq	%rdx, %rax
	movb	$0, (%rax)
	addl	$1, -4(%rbp)
.L45:
	movl	-4(%rbp), %eax
	movslq	%eax, %rdx
	movq	-24(%rbp), %rax
	addq	%rdx, %rax
	movzbl	(%rax), %eax
	cmpb	$46, %al
	jne	.L47
	nop
	nop
	leave
	.cfi_def_cfa 7, 8
	ret
	.cfi_endproc
.LFE15:
	.size	getLabelOperandName, .-getLabelOperandName
	.globl	getLabelOperandNumber
	.type	getLabelOperandNumber, @function
getLabelOperandNumber:
.LFB16:
	.cfi_startproc
	endbr64
	pushq	%rbp
	.cfi_def_cfa_offset 16
	.cfi_offset 6, -16
	movq	%rsp, %rbp
	.cfi_def_cfa_register 6
	movq	%rdi, -24(%rbp)
	movl	$0, -4(%rbp)
	jmp	.L49
.L50:
	addl	$1, -4(%rbp)
.L49:
	movl	-4(%rbp), %eax
	movslq	%eax, %rdx
	movq	-24(%rbp), %rax
	addq	%rdx, %rax
	movzbl	(%rax), %eax
	cmpb	$46, %al
	jne	.L50
	movl	-4(%rbp), %eax
	cltq
	leaq	1(%rax), %rdx
	movq	-24(%rbp), %rax
	addq	%rdx, %rax
	movzbl	(%rax), %eax
	movsbl	%al, %eax
	subl	$48, %eax
	popq	%rbp
	.cfi_def_cfa 7, 8
	ret
	.cfi_endproc
.LFE16:
	.size	getLabelOperandNumber, .-getLabelOperandNumber
	.globl	getRegister
	.type	getRegister, @function
getRegister:
.LFB17:
	.cfi_startproc
	endbr64
	pushq	%rbp
	.cfi_def_cfa_offset 16
	.cfi_offset 6, -16
	movq	%rsp, %rbp
	.cfi_def_cfa_register 6
	movq	%rdi, -24(%rbp)
	movq	-24(%rbp), %rax
	movzbl	1(%rax), %eax
	movb	%al, -5(%rbp)
	movsbl	-5(%rbp), %eax
	subl	$48, %eax
	movl	%eax, -4(%rbp)
	movl	-4(%rbp), %eax
	popq	%rbp
	.cfi_def_cfa 7, 8
	ret
	.cfi_endproc
.LFE17:
	.size	getRegister, .-getRegister
	.globl	isRegister
	.type	isRegister, @function
isRegister:
.LFB18:
	.cfi_startproc
	endbr64
	pushq	%rbp
	.cfi_def_cfa_offset 16
	.cfi_offset 6, -16
	movq	%rsp, %rbp
	.cfi_def_cfa_register 6
	subq	$32, %rsp
	movq	%rdi, -24(%rbp)
	movl	$0, -4(%rbp)
	movq	-24(%rbp), %rax
	movzbl	(%rax), %eax
	cmpb	$114, %al
	sete	%al
	movzbl	%al, %eax
	movl	%eax, -4(%rbp)
	call	__ctype_b_loc@PLT
	movq	(%rax), %rdx
	movq	-24(%rbp), %rax
	addq	$1, %rax
	movzbl	(%rax), %eax
	movsbq	%al, %rax
	addq	%rax, %rax
	addq	%rdx, %rax
	movzwl	(%rax), %eax
	movzwl	%ax, %eax
	andl	$2048, %eax
	testl	%eax, %eax
	je	.L55
	movl	-4(%rbp), %eax
	jmp	.L56
.L55:
	movl	$0, %eax
.L56:
	movl	%eax, -4(%rbp)
	call	__ctype_b_loc@PLT
	movq	(%rax), %rdx
	movq	-24(%rbp), %rax
	addq	$2, %rax
	movzbl	(%rax), %eax
	movsbq	%al, %rax
	addq	%rax, %rax
	addq	%rdx, %rax
	movzwl	(%rax), %eax
	movzwl	%ax, %eax
	andl	$8192, %eax
	testl	%eax, %eax
	jne	.L57
	movq	-24(%rbp), %rax
	addq	$2, %rax
	movzbl	(%rax), %eax
	testb	%al, %al
	jne	.L58
.L57:
	movl	-4(%rbp), %eax
	jmp	.L59
.L58:
	movl	$0, %eax
.L59:
	movl	%eax, -4(%rbp)
	movl	-4(%rbp), %eax
	leave
	.cfi_def_cfa 7, 8
	ret
	.cfi_endproc
.LFE18:
	.size	isRegister, .-isRegister
	.globl	isEmpty
	.type	isEmpty, @function
isEmpty:
.LFB19:
	.cfi_startproc
	endbr64
	pushq	%rbp
	.cfi_def_cfa_offset 16
	.cfi_offset 6, -16
	movq	%rsp, %rbp
	.cfi_def_cfa_register 6
	subq	$32, %rsp
	movq	%rdi, -24(%rbp)
	movq	-24(%rbp), %rax
	movq	%rax, %rdi
	call	throughText
	movl	%eax, -4(%rbp)
	cmpl	$1, -4(%rbp)
	sete	%al
	movzbl	%al, %eax
	movl	%eax, -4(%rbp)
	movl	-4(%rbp), %eax
	leave
	.cfi_def_cfa 7, 8
	ret
	.cfi_endproc
.LFE19:
	.size	isEmpty, .-isEmpty
	.globl	isComment
	.type	isComment, @function
isComment:
.LFB20:
	.cfi_startproc
	endbr64
	pushq	%rbp
	.cfi_def_cfa_offset 16
	.cfi_offset 6, -16
	movq	%rsp, %rbp
	.cfi_def_cfa_register 6
	subq	$32, %rsp
	movq	%rdi, -24(%rbp)
	movq	-24(%rbp), %rax
	movq	%rax, %rdi
	call	throughText
	movl	%eax, -4(%rbp)
	cmpl	$2, -4(%rbp)
	sete	%al
	movzbl	%al, %eax
	movl	%eax, -4(%rbp)
	movl	-4(%rbp), %eax
	leave
	.cfi_def_cfa 7, 8
	ret
	.cfi_endproc
.LFE20:
	.size	isComment, .-isComment
	.globl	startsWithLabel
	.type	startsWithLabel, @function
startsWithLabel:
.LFB21:
	.cfi_startproc
	endbr64
	pushq	%rbp
	.cfi_def_cfa_offset 16
	.cfi_offset 6, -16
	movq	%rsp, %rbp
	.cfi_def_cfa_register 6
	subq	$32, %rsp
	movq	%rdi, -24(%rbp)
	movq	-24(%rbp), %rax
	movq	%rax, %rdi
	call	throughText
	movl	%eax, -4(%rbp)
	cmpl	$3, -4(%rbp)
	sete	%al
	movzbl	%al, %eax
	movl	%eax, -4(%rbp)
	movl	-4(%rbp), %eax
	leave
	.cfi_def_cfa 7, 8
	ret
	.cfi_endproc
.LFE21:
	.size	startsWithLabel, .-startsWithLabel
	.globl	throughText
	.type	throughText, @function
throughText:
.LFB22:
	.cfi_startproc
	endbr64
	pushq	%rbp
	.cfi_def_cfa_offset 16
	.cfi_offset 6, -16
	movq	%rsp, %rbp
	.cfi_def_cfa_register 6
	subq	$32, %rsp
	movq	%rdi, -24(%rbp)
	movl	$0, -8(%rbp)
	movl	$1, -4(%rbp)
	call	__ctype_b_loc@PLT
	movq	(%rax), %rdx
	movl	-8(%rbp), %eax
	movslq	%eax, %rcx
	movq	-24(%rbp), %rax
	addq	%rcx, %rax
	movzbl	(%rax), %eax
	movsbq	%al, %rax
	addq	%rax, %rax
	addq	%rdx, %rax
	movzwl	(%rax), %eax
	movzwl	%ax, %eax
	sarl	$13, %eax
	andl	$1, %eax
	movl	%eax, -4(%rbp)
	jmp	.L68
.L72:
	movl	-8(%rbp), %eax
	movslq	%eax, %rdx
	movq	-24(%rbp), %rax
	addq	%rdx, %rax
	movzbl	(%rax), %eax
	cmpb	$10, %al
	jne	.L69
	movl	$1, %eax
	jmp	.L70
.L69:
	cmpl	$80, -8(%rbp)
	jle	.L71
	movl	$1, %eax
	jmp	.L70
.L71:
	call	__ctype_b_loc@PLT
	movq	(%rax), %rdx
	movl	-8(%rbp), %eax
	movslq	%eax, %rcx
	movq	-24(%rbp), %rax
	addq	%rcx, %rax
	movzbl	(%rax), %eax
	movsbq	%al, %rax
	addq	%rax, %rax
	addq	%rdx, %rax
	movzwl	(%rax), %eax
	movzwl	%ax, %eax
	sarl	$13, %eax
	andl	$1, %eax
	movl	%eax, -4(%rbp)
	addl	$1, -8(%rbp)
.L68:
	cmpl	$1, -4(%rbp)
	je	.L72
	movl	-8(%rbp), %eax
	movslq	%eax, %rdx
	movq	-24(%rbp), %rax
	addq	%rdx, %rax
	movzbl	(%rax), %eax
	cmpb	$59, %al
	jne	.L74
	movl	$2, %eax
	jmp	.L70
.L77:
	call	__ctype_b_loc@PLT
	movq	(%rax), %rdx
	movl	-8(%rbp), %eax
	movslq	%eax, %rcx
	movq	-24(%rbp), %rax
	addq	%rcx, %rax
	movzbl	(%rax), %eax
	movsbq	%al, %rax
	addq	%rax, %rax
	addq	%rdx, %rax
	movzwl	(%rax), %eax
	movzwl	%ax, %eax
	andl	$8192, %eax
	testl	%eax, %eax
	je	.L75
	movl	$1, -4(%rbp)
.L75:
	movl	-8(%rbp), %eax
	movslq	%eax, %rdx
	movq	-24(%rbp), %rax
	addq	%rdx, %rax
	movzbl	(%rax), %eax
	cmpb	$58, %al
	jne	.L76
	cmpl	$1, -4(%rbp)
	je	.L76
	movl	$3, %eax
	jmp	.L70
.L76:
	addl	$1, -8(%rbp)
.L74:
	cmpl	$80, -8(%rbp)
	jle	.L77
	movl	$0, %eax
.L70:
	leave
	.cfi_def_cfa 7, 8
	ret
	.cfi_endproc
.LFE22:
	.size	throughText, .-throughText
	.globl	getNextWord
	.type	getNextWord, @function
getNextWord:
.LFB23:
	.cfi_startproc
	endbr64
	pushq	%rbp
	.cfi_def_cfa_offset 16
	.cfi_offset 6, -16
	movq	%rsp, %rbp
	.cfi_def_cfa_register 6
	subq	$32, %rsp
	movq	%rdi, -24(%rbp)
	movl	$0, -12(%rbp)
	movl	$1, %edi
	call	malloc@PLT
	movq	%rax, -8(%rbp)
	jmp	.L79
.L81:
	addl	$1, -12(%rbp)
.L79:
	movl	-12(%rbp), %eax
	movslq	%eax, %rdx
	movq	-24(%rbp), %rax
	addq	%rdx, %rax
	movzbl	(%rax), %eax
	testb	%al, %al
	je	.L80
	call	__ctype_b_loc@PLT
	movq	(%rax), %rdx
	movl	-12(%rbp), %eax
	movslq	%eax, %rcx
	movq	-24(%rbp), %rax
	addq	%rcx, %rax
	movzbl	(%rax), %eax
	movsbq	%al, %rax
	addq	%rax, %rax
	addq	%rdx, %rax
	movzwl	(%rax), %eax
	movzwl	%ax, %eax
	andl	$8192, %eax
	testl	%eax, %eax
	je	.L81
.L80:
	cmpl	$0, -12(%rbp)
	jle	.L82
	movl	-12(%rbp), %eax
	addl	$1, %eax
	movslq	%eax, %rdx
	movq	-8(%rbp), %rax
	movq	%rdx, %rsi
	movq	%rax, %rdi
	call	realloc@PLT
	movq	%rax, -8(%rbp)
	movl	-12(%rbp), %eax
	movslq	%eax, %rdx
	movq	-24(%rbp), %rcx
	movq	-8(%rbp), %rax
	movq	%rcx, %rsi
	movq	%rax, %rdi
	call	strncpy@PLT
	movl	-12(%rbp), %eax
	movslq	%eax, %rdx
	movq	-8(%rbp), %rax
	addq	%rdx, %rax
	movb	$0, (%rax)
.L82:
	movq	-8(%rbp), %rax
	leave
	.cfi_def_cfa 7, 8
	ret
	.cfi_endproc
.LFE23:
	.size	getNextWord, .-getNextWord
	.ident	"GCC: (Ubuntu 11.2.0-19ubuntu1) 11.2.0"
	.section	.note.GNU-stack,"",@progbits
	.section	.note.gnu.property,"a"
	.align 8
	.long	1f - 0f
	.long	4f - 1f
	.long	5
0:
	.string	"GNU"
1:
	.align 8
	.long	0xc0000002
	.long	3f - 2f
2:
	.long	0x3
3:
	.align 8
4:
